; Function Attrs: nounwind uwtable
define internal ptr @union_getattro(ptr noundef %0, ptr noundef %1) #0 {
  %3 = getelementptr i8, ptr %1, i64 8
  %.val = load ptr, ptr %3, align 8, !tbaa !9
  %4 = getelementptr i8, ptr %.val, i64 168
  %.val16 = load i64, ptr %4, align 8, !tbaa !12
  %5 = and i64 %.val16, 268435456
  %.not = icmp eq i64 %5, 0
  br i1 %.not, label %.thread, label %.preheader.preheader

.preheader.preheader:                             ; preds = %2
  %6 = tail call i32 @_PyUnicode_EqualToASCIIString(ptr noundef nonnull %1, ptr noundef nonnull @.str.3) #5
  %.not14 = icmp eq i32 %6, 0
  br i1 %.not14, label %.thread, label %7

7:                                                ; preds = %.preheader.preheader
  %8 = getelementptr i8, ptr %0, i64 8
  %.val15 = load ptr, ptr %8, align 8, !tbaa !9
  %9 = tail call ptr @PyObject_GetAttr(ptr noundef %.val15, ptr noundef nonnull %1) #5
  br label %11

.thread:                                          ; preds = %.preheader.preheader, %2
  %10 = tail call ptr @PyObject_GenericGetAttr(ptr noundef %0, ptr noundef nonnull %1) #5
  br label %11

11:                                               ; preds = %7, %.thread
  %.1 = phi ptr [ %10, %.thread ], [ %9, %7 ]
  ret ptr %.1
}